; Function Attrs: nofree norecurse nosync nounwind memory(argmem: readwrite) uwtable
define range(i64 1, 0) i64 @HUFv05_readDTableX2(ptr noundef captures(none) %0, ptr noundef %1, i64 noundef %2) local_unnamed_addr #4 {
  %4 = alloca [256 x i8], align 16
  %5 = alloca [17 x i32], align 16
  %6 = alloca i32, align 4
  %7 = alloca i32, align 4
  call void @llvm.lifetime.start.p0(i64 256, ptr nonnull %4) #27
  call void @llvm.lifetime.start.p0(i64 68, ptr nonnull %5) #27
  call void @llvm.lifetime.start.p0(i64 4, ptr nonnull %6) #27
  store i32 0, ptr %6, align 4, !tbaa !17
  call void @llvm.lifetime.start.p0(i64 4, ptr nonnull %7) #27
  store i32 0, ptr %7, align 4, !tbaa !17
  %8 = getelementptr inbounds nuw i8, ptr %0, i64 2
  %9 = call fastcc i64 @HUFv05_readStats(ptr noundef %4, ptr noundef %5, ptr noundef %7, ptr noundef %6, ptr noundef %1, i64 noundef %2)
  %10 = icmp ult i64 %9, -119
  br i1 %10, label %11, label %.loopexit

11:                                               ; preds = %3
  %12 = load i32, ptr %6, align 4, !tbaa !17
  %13 = load i16, ptr %0, align 2, !tbaa !3
  %14 = zext i16 %13 to i32
  %15 = icmp ugt i32 %12, %14
  br i1 %15, label %.loopexit, label %16

16:                                               ; preds = %11
  %17 = trunc nuw i32 %12 to i16
  store i16 %17, ptr %0, align 2, !tbaa !3
  %.not3738 = icmp eq i32 %12, 0
  br i1 %.not3738, label %.preheader, label %.lr.ph.preheader

.lr.ph.preheader:                                 ; preds = %16
  %18 = add nuw nsw i32 %12, 1
  %wide.trip.count = zext nneg i32 %18 to i64
  br label %.lr.ph

.preheader:                                       ; preds = %.lr.ph, %16
  %19 = load i32, ptr %7, align 4, !tbaa !17
  %.not = icmp eq i32 %19, 0
  br i1 %.not, label %.loopexit, label %.lr.ph44

.lr.ph44:                                         ; preds = %.preheader
  %20 = trunc i32 %12 to i8
  %21 = add i8 %20, 1
  %wide.trip.count54 = zext i32 %19 to i64
  br label %28

.lr.ph:                                           ; preds = %.lr.ph.preheader, %.lr.ph
  %indvars.iv = phi i64 [ 1, %.lr.ph.preheader ], [ %indvars.iv.next, %.lr.ph ]
  %.03439 = phi i32 [ 0, %.lr.ph.preheader ], [ %27, %.lr.ph ]
  %22 = getelementptr inbounds nuw [17 x i32], ptr %5, i64 0, i64 %indvars.iv
  %23 = load i32, ptr %22, align 4, !tbaa !17
  %24 = trunc i64 %indvars.iv to i32
  %25 = add i32 %24, -1
  %26 = shl i32 %23, %25
  %27 = add i32 %26, %.03439
  store i32 %.03439, ptr %22, align 4, !tbaa !17
  %indvars.iv.next = add nuw nsw i64 %indvars.iv, 1
  %exitcond = icmp eq i64 %indvars.iv.next, %wide.trip.count
  br i1 %exitcond, label %.preheader, label %.lr.ph, !llvm.loop !31

28:                                               ; preds = %.lr.ph44, %._crit_edge
  %indvars.iv51 = phi i64 [ 0, %.lr.ph44 ], [ %indvars.iv.next52, %._crit_edge ]
  %29 = getelementptr inbounds nuw [256 x i8], ptr %4, i64 0, i64 %indvars.iv51
  %30 = load i8, ptr %29, align 1, !tbaa !27
  %31 = zext nneg i8 %30 to i32
  %32 = shl nuw i32 1, %31
  %33 = ashr i32 %32, 1
  %34 = trunc i64 %indvars.iv51 to i8
  %35 = sub i8 %21, %30
  %36 = zext i8 %30 to i64
  %37 = getelementptr inbounds nuw [17 x i32], ptr %5, i64 0, i64 %36
  %38 = load i32, ptr %37, align 4, !tbaa !17
  %39 = add i32 %33, %38
  %40 = icmp ult i32 %38, %39
  br i1 %40, label %.lr.ph42.preheader, label %._crit_edge

.lr.ph42.preheader:                               ; preds = %28
  %41 = zext i32 %38 to i64
  %wide.trip.count49 = zext i32 %39 to i64
  br label %.lr.ph42

.lr.ph42:                                         ; preds = %.lr.ph42.preheader, %.lr.ph42
  %indvars.iv46 = phi i64 [ %41, %.lr.ph42.preheader ], [ %indvars.iv.next47, %.lr.ph42 ]
  %42 = getelementptr inbounds nuw %struct.HUFv05_DEltX2, ptr %8, i64 %indvars.iv46
  store i8 %34, ptr %42, align 1, !tbaa !27
  %.sroa.4.0..sroa_idx = getelementptr inbounds nuw i8, ptr %42, i64 1
  store i8 %35, ptr %.sroa.4.0..sroa_idx, align 1, !tbaa !27
  %indvars.iv.next47 = add nuw nsw i64 %indvars.iv46, 1
  %exitcond50.not = icmp eq i64 %indvars.iv.next47, %wide.trip.count49
  br i1 %exitcond50.not, label %._crit_edge, label %.lr.ph42, !llvm.loop !32

._crit_edge:                                      ; preds = %.lr.ph42, %28
  store i32 %39, ptr %37, align 4, !tbaa !17
  %indvars.iv.next52 = add nuw nsw i64 %indvars.iv51, 1
  %exitcond55.not = icmp eq i64 %indvars.iv.next52, %wide.trip.count54
  br i1 %exitcond55.not, label %.loopexit, label %28, !llvm.loop !33

.loopexit:                                        ; preds = %._crit_edge, %.preheader, %11, %3
  %.0 = phi i64 [ %9, %3 ], [ -44, %11 ], [ %9, %.preheader ], [ %9, %._crit_edge ]
  call void @llvm.lifetime.end.p0(i64 4, ptr nonnull %7) #27
  call void @llvm.lifetime.end.p0(i64 4, ptr nonnull %6) #27
  call void @llvm.lifetime.end.p0(i64 68, ptr nonnull %5) #27
  call void @llvm.lifetime.end.p0(i64 256, ptr nonnull %4) #27
  ret i64 %.0
}